target datalayout = "e-m:e-p270:32:32-p271:32:32-p272:64:64-i64:64-i128:128-f80:128-n8:16:32:64-S128"
target triple = "x86_64-pc-linux-gnu"

%struct.lstopo_cairo_output = type { ptr, ptr, ptr }
%struct.lstopo_output = type { ptr, i32, i32, i32, ptr, i32, i32, i32, i32, i32, i32, i32, i32, ptr, ptr, i32, i32, i64, i64, i64, i32, [3 x [128 x i8]], i32, i32, ptr, i32, i32, i32, i32, i32, i32, %struct.hwloc_calc_level, i32, i32, i32, i64, [256 x i8], i32, i32, i32, i32, i32, float, [20 x i32], i32, i32, i32, [20 x i32], i32, [20 x i32], i32, [20 x i32], i32, i32, i32, i32, ptr, ptr, i32, [20 x i32], [20 x i32], [20 x i32], ptr, ptr, i64, ptr, i32, i32, i32 }
%struct.hwloc_calc_level = type { i32, i32, %union.hwloc_obj_attr_u, [32 x i8], i32, i32, i32, i32 }
%union.hwloc_obj_attr_u = type { %struct.hwloc_numanode_attr_s, [24 x i8] }
%struct.hwloc_numanode_attr_s = type { i64, i32, ptr }
%struct.lstopo_color = type { i32, i32, i32, i32, %union.lstopo_color_private_u, ptr }
%union.lstopo_color_private_u = type { %struct.lstopo_color_private_ascii_s }
%struct.lstopo_color_private_ascii_s = type { i32 }
%struct.hwloc_obj = type { i32, ptr, i32, ptr, i64, ptr, i32, i32, ptr, ptr, ptr, i32, ptr, ptr, i32, ptr, ptr, ptr, i32, i32, ptr, i32, ptr, i32, ptr, ptr, ptr, ptr, ptr, %struct.hwloc_infos_s, ptr, i64 }
%struct.hwloc_infos_s = type { ptr, i32, i32 }
%struct.lstopo_obj_userdata = type { %struct.hwloc_utils_userdata, i32, i32, %struct.lstopo_style, i32, i32, i32, i32, %struct.lstopo_children_position, %struct.lstopo_children_position, %struct.lstopo_children_position, %struct.lstopo_children_position, i32, i32, i32, [4 x %struct.lstopo_text_line], i32, i32 }
%struct.hwloc_utils_userdata = type { ptr, i64, ptr, ptr }
%struct.lstopo_style = type { ptr, ptr, ptr }
%struct.lstopo_children_position = type { i32, i32, i32, i32, i32, i32, ptr }
%struct.lstopo_text_line = type { [128 x i8], i32, i32 }

; Function Attrs: inlinehint nounwind uwtable
define internal i32 @lstopo_obj_cpukind_style(ptr noundef %0, ptr noundef %1) #9 {
  %3 = alloca i32, align 4
  %4 = alloca ptr, align 8
  %5 = alloca ptr, align 8
  %6 = alloca ptr, align 8
  store ptr %0, ptr %4, align 8, !tbaa !4
  store ptr %1, ptr %5, align 8, !tbaa !112
  %7 = load ptr, ptr %4, align 8, !tbaa !4
  %8 = getelementptr inbounds nuw %struct.lstopo_output, ptr %7, i32 0, i32 55
  %9 = load i32, ptr %8, align 8, !tbaa !93
  %10 = icmp ne i32 %9, 0
  br i1 %10, label %11, label %27

11:                                               ; preds = %2
  %12 = load ptr, ptr %5, align 8, !tbaa !112
  %13 = icmp ne ptr %12, null
  br i1 %13, label %14, label %26

14:                                               ; preds = %11
  %15 = load ptr, ptr %5, align 8, !tbaa !112
  %16 = getelementptr inbounds nuw %struct.hwloc_obj, ptr %15, i32 0, i32 30
  %17 = load ptr, ptr %16, align 8, !tbaa !124
  %18 = icmp ne ptr %17, null
  br i1 %18, label %19, label %26

19:                                               ; preds = %14
  call void @llvm.lifetime.start.p0(i64 8, ptr %6) #10
  %20 = load ptr, ptr %5, align 8, !tbaa !112
  %21 = getelementptr inbounds nuw %struct.hwloc_obj, ptr %20, i32 0, i32 30
  %22 = load ptr, ptr %21, align 8, !tbaa !124
  store ptr %22, ptr %6, align 8, !tbaa !130
  %23 = load ptr, ptr %6, align 8, !tbaa !130
  %24 = getelementptr inbounds nuw %struct.lstopo_obj_userdata, ptr %23, i32 0, i32 5
  %25 = load i32, ptr %24, align 4, !tbaa !132
  store i32 %25, ptr %3, align 4
  call void @llvm.lifetime.end.p0(i64 8, ptr %6) #10
  br label %28

26:                                               ; preds = %14, %11
  br label %27

27:                                               ; preds = %26, %2
  store i32 0, ptr %3, align 4
  br label %28

28:                                               ; preds = %27, %19
  %29 = load i32, ptr %3, align 4
  ret i32 %29
}

; Function Attrs: nounwind uwtable
define internal void @topo_cairo_box(ptr noundef %0, ptr noundef %1, i32 noundef %2, i32 noundef %3, i32 noundef %4, i32 noundef %5, i32 noundef %6, ptr noundef %7, i32 noundef %8) #0 {
  %10 = alloca ptr, align 8
  %11 = alloca ptr, align 8
  %12 = alloca i32, align 4
  %13 = alloca i32, align 4
  %14 = alloca i32, align 4
  %15 = alloca i32, align 4
  %16 = alloca i32, align 4
  %17 = alloca ptr, align 8
  %18 = alloca i32, align 4
  %19 = alloca ptr, align 8
  %20 = alloca i32, align 4
  %21 = alloca ptr, align 8
  %22 = alloca i32, align 4
  %23 = alloca i32, align 4
  %24 = alloca i32, align 4
  %25 = alloca double, align 8
  store ptr %0, ptr %10, align 8, !tbaa !4
  store ptr %1, ptr %11, align 8, !tbaa !110
  store i32 %2, ptr %12, align 4, !tbaa !13
  store i32 %3, ptr %13, align 4, !tbaa !13
  store i32 %4, ptr %14, align 4, !tbaa !13
  store i32 %5, ptr %15, align 4, !tbaa !13
  store i32 %6, ptr %16, align 4, !tbaa !13
  store ptr %7, ptr %17, align 8, !tbaa !112
  store i32 %8, ptr %18, align 4, !tbaa !13
  call void @llvm.lifetime.start.p0(i64 8, ptr %19) #10
  %26 = load ptr, ptr %10, align 8, !tbaa !4
  %27 = getelementptr inbounds nuw %struct.lstopo_output, ptr %26, i32 0, i32 63
  %28 = load ptr, ptr %27, align 8, !tbaa !21
  store ptr %28, ptr %19, align 8, !tbaa !15
  call void @llvm.lifetime.start.p0(i64 4, ptr %20) #10
  %29 = load ptr, ptr %10, align 8, !tbaa !4
  %30 = load ptr, ptr %17, align 8, !tbaa !112
  %31 = call i32 @lstopo_obj_cpukind_style(ptr noundef %29, ptr noundef %30)
  store i32 %31, ptr %20, align 4, !tbaa !13
  call void @llvm.lifetime.start.p0(i64 8, ptr %21) #10
  %32 = load ptr, ptr %19, align 8, !tbaa !15
  %33 = getelementptr inbounds nuw %struct.lstopo_cairo_output, ptr %32, i32 0, i32 2
  %34 = load ptr, ptr %33, align 8, !tbaa !105
  store ptr %34, ptr %21, align 8, !tbaa !104
  call void @llvm.lifetime.start.p0(i64 4, ptr %22) #10
  %35 = load ptr, ptr %11, align 8, !tbaa !110
  %36 = getelementptr inbounds nuw %struct.lstopo_color, ptr %35, i32 0, i32 0
  %37 = load i32, ptr %36, align 8, !tbaa !114
  store i32 %37, ptr %22, align 4, !tbaa !13
  call void @llvm.lifetime.start.p0(i64 4, ptr %23) #10
  %38 = load ptr, ptr %11, align 8, !tbaa !110
  %39 = getelementptr inbounds nuw %struct.lstopo_color, ptr %38, i32 0, i32 1
  %40 = load i32, ptr %39, align 4, !tbaa !116
  store i32 %40, ptr %23, align 4, !tbaa !13
  call void @llvm.lifetime.start.p0(i64 4, ptr %24) #10
  %41 = load ptr, ptr %11, align 8, !tbaa !110
  %42 = getelementptr inbounds nuw %struct.lstopo_color, ptr %41, i32 0, i32 2
  %43 = load i32, ptr %42, align 8, !tbaa !117
  store i32 %43, ptr %24, align 4, !tbaa !13
  %44 = load ptr, ptr %21, align 8, !tbaa !104
  %45 = load i32, ptr %13, align 4, !tbaa !13
  %46 = uitofp i32 %45 to double
  %47 = load i32, ptr %15, align 4, !tbaa !13
  %48 = uitofp i32 %47 to double
  %49 = load i32, ptr %14, align 4, !tbaa !13
  %50 = uitofp i32 %49 to double
  %51 = load i32, ptr %16, align 4, !tbaa !13
  %52 = uitofp i32 %51 to double
  call void @cairo_rectangle(ptr noundef %44, double noundef %46, double noundef %48, double noundef %50, double noundef %52)
  %53 = load ptr, ptr %21, align 8, !tbaa !104
  %54 = load i32, ptr %22, align 4, !tbaa !13
  %55 = sitofp i32 %54 to float
  %56 = fdiv float %55, 2.550000e+02
  %57 = fpext float %56 to double
  %58 = load i32, ptr %23, align 4, !tbaa !13
  %59 = sitofp i32 %58 to float
  %60 = fdiv float %59, 2.550000e+02
  %61 = fpext float %60 to double
  %62 = load i32, ptr %24, align 4, !tbaa !13
  %63 = sitofp i32 %62 to float
  %64 = fdiv float %63, 2.550000e+02
  %65 = fpext float %64 to double
  call void @cairo_set_source_rgb(ptr noundef %53, double noundef %57, double noundef %61, double noundef %65)
  %66 = load ptr, ptr %21, align 8, !tbaa !104
  call void @cairo_fill(ptr noundef %66)
  %67 = load ptr, ptr %21, align 8, !tbaa !104
  %68 = load i32, ptr %13, align 4, !tbaa !13
  %69 = uitofp i32 %68 to double
  %70 = load i32, ptr %15, align 4, !tbaa !13
  %71 = uitofp i32 %70 to double
  %72 = load i32, ptr %14, align 4, !tbaa !13
  %73 = uitofp i32 %72 to double
  %74 = load i32, ptr %16, align 4, !tbaa !13
  %75 = uitofp i32 %74 to double
  call void @cairo_rectangle(ptr noundef %67, double noundef %69, double noundef %71, double noundef %73, double noundef %75)
  %76 = load ptr, ptr %21, align 8, !tbaa !104
  call void @cairo_set_source_rgb(ptr noundef %76, double noundef 0.000000e+00, double noundef 0.000000e+00, double noundef 0.000000e+00)
  %77 = load i32, ptr %20, align 4, !tbaa !13
  %78 = icmp ne i32 %77, 0
  br i1 %78, label %79, label %92

79:                                               ; preds = %9
  call void @llvm.lifetime.start.p0(i64 8, ptr %25) #10
  %80 = load i32, ptr %20, align 4, !tbaa !13
  %81 = shl i32 1, %80
  %82 = uitofp i32 %81 to double
  store double %82, ptr %25, align 8, !tbaa !118
  %83 = load ptr, ptr %21, align 8, !tbaa !104
  call void @cairo_set_dash(ptr noundef %83, ptr noundef %25, i32 noundef 1, double noundef 0.000000e+00)
  %84 = load ptr, ptr %21, align 8, !tbaa !104
  %85 = load ptr, ptr %10, align 8, !tbaa !4
  %86 = getelementptr inbounds nuw %struct.lstopo_output, ptr %85, i32 0, i32 41
  %87 = load i32, ptr %86, align 8, !tbaa !106
  %88 = load i32, ptr %20, align 4, !tbaa !13
  %89 = add i32 1, %88
  %90 = mul i32 %87, %89
  %91 = uitofp i32 %90 to double
  call void @cairo_set_line_width(ptr noundef %84, double noundef %91)
  call void @llvm.lifetime.end.p0(i64 8, ptr %25) #10
  br label %92

92:                                               ; preds = %79, %9
  %93 = load ptr, ptr %21, align 8, !tbaa !104
  call void @cairo_stroke(ptr noundef %93)
  %94 = load i32, ptr %20, align 4, !tbaa !13
  %95 = icmp ne i32 %94, 0
  br i1 %95, label %96, label %103

96:                                               ; preds = %92
  %97 = load ptr, ptr %21, align 8, !tbaa !104
  call void @cairo_set_dash(ptr noundef %97, ptr noundef null, i32 noundef 0, double noundef 0.000000e+00)
  %98 = load ptr, ptr %21, align 8, !tbaa !104
  %99 = load ptr, ptr %10, align 8, !tbaa !4
  %100 = getelementptr inbounds nuw %struct.lstopo_output, ptr %99, i32 0, i32 41
  %101 = load i32, ptr %100, align 8, !tbaa !106
  %102 = uitofp i32 %101 to double
  call void @cairo_set_line_width(ptr noundef %98, double noundef %102)
  br label %103

103:                                              ; preds = %96, %92
  call void @llvm.lifetime.end.p0(i64 4, ptr %24) #10
  call void @llvm.lifetime.end.p0(i64 4, ptr %23) #10
  call void @llvm.lifetime.end.p0(i64 4, ptr %22) #10
  call void @llvm.lifetime.end.p0(i64 8, ptr %21) #10
  call void @llvm.lifetime.end.p0(i64 4, ptr %20) #10
  call void @llvm.lifetime.end.p0(i64 8, ptr %19) #10
  ret void
}