; Function Attrs: nounwind uwtable
define internal void @topo_cairo_box(ptr noundef readonly captures(none) %0, ptr noundef readonly captures(none) %1, i32 %2, i32 noundef %3, i32 noundef %4, i32 noundef %5, i32 noundef %6, ptr noundef readonly captures(address_is_null) %7, i32 %8) #0 {
  %10 = alloca double, align 8
  %11 = getelementptr inbounds nuw i8, ptr %0, i64 1584
  %12 = load ptr, ptr %11, align 8, !tbaa !12
  %13 = getelementptr i8, ptr %0, i64 1304
  %.val = load i32, ptr %13, align 8, !tbaa !91
  %14 = icmp ne i32 %.val, 0
  %15 = icmp ne ptr %7, null
  %or.cond.i = and i1 %15, %14
  br i1 %or.cond.i, label %16, label %lstopo_obj_cpukind_style.exit

16:                                               ; preds = %9
  %17 = getelementptr inbounds nuw i8, ptr %7, i64 232
  %18 = load ptr, ptr %17, align 8, !tbaa !99
  %.not.i = icmp eq ptr %18, null
  br i1 %.not.i, label %lstopo_obj_cpukind_style.exit, label %19

19:                                               ; preds = %16
  %20 = getelementptr inbounds nuw i8, ptr %18, i64 68
  %21 = load i32, ptr %20, align 4, !tbaa !106
  br label %lstopo_obj_cpukind_style.exit

lstopo_obj_cpukind_style.exit:                    ; preds = %9, %16, %19
  %.0.i = phi i32 [ %21, %19 ], [ 0, %16 ], [ 0, %9 ]
  %22 = getelementptr inbounds nuw i8, ptr %12, i64 16
  %23 = load ptr, ptr %22, align 8, !tbaa !55
  %24 = load i32, ptr %1, align 8, !tbaa !113
  %25 = getelementptr inbounds nuw i8, ptr %1, i64 4
  %26 = load i32, ptr %25, align 4, !tbaa !115
  %27 = getelementptr inbounds nuw i8, ptr %1, i64 8
  %28 = load i32, ptr %27, align 8, !tbaa !116
  %29 = uitofp i32 %3 to double
  %30 = uitofp i32 %5 to double
  %31 = uitofp i32 %4 to double
  %32 = uitofp i32 %6 to double
  tail call void @cairo_rectangle(ptr noundef %23, double noundef %29, double noundef %30, double noundef %31, double noundef %32) #13
  %33 = sitofp i32 %24 to float
  %34 = fdiv float %33, 2.550000e+02
  %35 = fpext float %34 to double
  %36 = sitofp i32 %26 to float
  %37 = fdiv float %36, 2.550000e+02
  %38 = fpext float %37 to double
  %39 = sitofp i32 %28 to float
  %40 = fdiv float %39, 2.550000e+02
  %41 = fpext float %40 to double
  tail call void @cairo_set_source_rgb(ptr noundef %23, double noundef %35, double noundef %38, double noundef %41) #13
  tail call void @cairo_fill(ptr noundef %23) #13
  tail call void @cairo_rectangle(ptr noundef %23, double noundef %29, double noundef %30, double noundef %31, double noundef %32) #13
  tail call void @cairo_set_source_rgb(ptr noundef %23, double noundef 0.000000e+00, double noundef 0.000000e+00, double noundef 0.000000e+00) #13
  %.not = icmp eq i32 %.0.i, 0
  br i1 %.not, label %.critedge, label %42

42:                                               ; preds = %lstopo_obj_cpukind_style.exit
  call void @llvm.lifetime.start.p0(i64 8, ptr nonnull %10) #13
  %43 = shl nuw i32 1, %.0.i
  %44 = uitofp i32 %43 to double
  store double %44, ptr %10, align 8, !tbaa !117
  call void @cairo_set_dash(ptr noundef %23, ptr noundef nonnull %10, i32 noundef 1, double noundef 0.000000e+00) #13
  %45 = getelementptr inbounds nuw i8, ptr %0, i64 944
  %46 = load i32, ptr %45, align 8, !tbaa !56
  %47 = add i32 %.0.i, 1
  %48 = mul i32 %46, %47
  %49 = uitofp i32 %48 to double
  call void @cairo_set_line_width(ptr noundef %23, double noundef %49) #13
  call void @llvm.lifetime.end.p0(i64 8, ptr nonnull %10) #13
  call void @cairo_stroke(ptr noundef %23) #13
  call void @cairo_set_dash(ptr noundef %23, ptr noundef null, i32 noundef 0, double noundef 0.000000e+00) #13
  %50 = load i32, ptr %45, align 8, !tbaa !56
  %51 = uitofp i32 %50 to double
  call void @cairo_set_line_width(ptr noundef %23, double noundef %51) #13
  br label %52

.critedge:                                        ; preds = %lstopo_obj_cpukind_style.exit
  tail call void @cairo_stroke(ptr noundef %23) #13
  br label %52

52:                                               ; preds = %.critedge, %42
  ret void
}